; Function Attrs: inlinehint nounwind uwtable
define internal fastcc range(i32 -1, 1) i32 @deque_append_lock_held(ptr noundef captures(none) %0, ptr noundef %1, i64 noundef %2) unnamed_addr #4 {
  %4 = getelementptr inbounds nuw i8, ptr %0, i64 48
  %5 = load i64, ptr %4, align 8, !tbaa !50
  %6 = icmp eq i64 %5, 63
  br i1 %6, label %8, label %._crit_edge

._crit_edge:                                      ; preds = %3
  %.phi.trans.insert = getelementptr inbounds nuw i8, ptr %0, i64 32
  %.pre = load ptr, ptr %.phi.trans.insert, align 8, !tbaa !47
  %7 = add i64 %5, 1
  br label %22

8:                                                ; preds = %3
  %9 = getelementptr inbounds nuw i8, ptr %0, i64 72
  %10 = load i64, ptr %9, align 8, !tbaa !40
  %.not.i24 = icmp eq i64 %10, 0
  br i1 %.not.i24, label %11, label %newblock.exit

11:                                               ; preds = %8
  %12 = tail call ptr @PyMem_Malloc(i64 noundef 528) #9
  %.not9.i = icmp eq ptr %12, null
  br i1 %.not9.i, label %newblock.exit.thread, label %newblock.exit.thread28

newblock.exit.thread:                             ; preds = %11
  %13 = tail call ptr @PyErr_NoMemory() #9
  br label %Py_DECREF.exit

newblock.exit:                                    ; preds = %8
  %14 = add i64 %10, -1
  store i64 %14, ptr %9, align 8, !tbaa !40
  %15 = getelementptr inbounds nuw i8, ptr %0, i64 80
  %16 = getelementptr [16 x ptr], ptr %15, i64 0, i64 %14
  %17 = load ptr, ptr %16, align 8, !tbaa !41
  %18 = icmp eq ptr %17, null
  br i1 %18, label %Py_DECREF.exit, label %newblock.exit.thread28

newblock.exit.thread28:                           ; preds = %11, %newblock.exit
  %.0.i30 = phi ptr [ %17, %newblock.exit ], [ %12, %11 ]
  %19 = getelementptr inbounds nuw i8, ptr %0, i64 32
  %20 = load ptr, ptr %19, align 8, !tbaa !47
  store ptr %20, ptr %.0.i30, align 8, !tbaa !56
  %21 = getelementptr inbounds nuw i8, ptr %20, i64 520
  store ptr %.0.i30, ptr %21, align 8, !tbaa !54
  store ptr %.0.i30, ptr %19, align 8, !tbaa !47
  br label %22

22:                                               ; preds = %._crit_edge, %newblock.exit.thread28
  %23 = phi ptr [ %.0.i30, %newblock.exit.thread28 ], [ %.pre, %._crit_edge ]
  %24 = phi i64 [ 0, %newblock.exit.thread28 ], [ %7, %._crit_edge ]
  %25 = getelementptr i8, ptr %0, i64 16
  %.val23 = load i64, ptr %25, align 8, !tbaa !52
  %26 = add i64 %.val23, 1
  store i64 %26, ptr %25, align 8, !tbaa !52
  store i64 %24, ptr %4, align 8, !tbaa !50
  %27 = getelementptr inbounds nuw i8, ptr %23, i64 8
  %28 = getelementptr [64 x ptr], ptr %27, i64 0, i64 %24
  store ptr %1, ptr %28, align 8, !tbaa !21
  %29 = icmp ult i64 %2, %26
  br i1 %29, label %30, label %61

30:                                               ; preds = %22
  %31 = getelementptr inbounds nuw i8, ptr %0, i64 24
  %32 = load ptr, ptr %31, align 8, !tbaa !39
  %33 = getelementptr inbounds nuw i8, ptr %32, i64 8
  %34 = getelementptr inbounds nuw i8, ptr %0, i64 40
  %35 = load i64, ptr %34, align 8, !tbaa !46
  %36 = getelementptr [64 x ptr], ptr %33, i64 0, i64 %35
  %37 = load ptr, ptr %36, align 8, !tbaa !21
  %38 = add i64 %35, 1
  store i64 %38, ptr %34, align 8, !tbaa !46
  store i64 %.val23, ptr %25, align 8, !tbaa !52
  %39 = getelementptr inbounds nuw i8, ptr %0, i64 56
  %40 = load i64, ptr %39, align 8, !tbaa !53
  %41 = add i64 %40, 1
  store i64 %41, ptr %39, align 8, !tbaa !53
  %42 = icmp eq i64 %38, 64
  br i1 %42, label %43, label %deque_popleft_impl.exit

43:                                               ; preds = %30
  %.not.i26 = icmp eq i64 %.val23, 0
  br i1 %.not.i26, label %55, label %44

44:                                               ; preds = %43
  %45 = getelementptr inbounds nuw i8, ptr %32, i64 520
  %46 = load ptr, ptr %45, align 8, !tbaa !54
  %47 = getelementptr inbounds nuw i8, ptr %0, i64 72
  %48 = load i64, ptr %47, align 8, !tbaa !40
  %49 = icmp slt i64 %48, 16
  br i1 %49, label %50, label %54

50:                                               ; preds = %44
  %51 = getelementptr inbounds nuw i8, ptr %0, i64 80
  %52 = getelementptr [16 x ptr], ptr %51, i64 0, i64 %48
  store ptr %32, ptr %52, align 8, !tbaa !41
  %53 = add nsw i64 %48, 1
  store i64 %53, ptr %47, align 8, !tbaa !40
  br label %freeblock.exit.i

54:                                               ; preds = %44
  tail call void @PyMem_Free(ptr noundef nonnull %32) #9
  br label %freeblock.exit.i

freeblock.exit.i:                                 ; preds = %54, %50
  store ptr %46, ptr %31, align 8, !tbaa !39
  store i64 0, ptr %34, align 8, !tbaa !46
  br label %deque_popleft_impl.exit

55:                                               ; preds = %43
  store i64 32, ptr %34, align 8, !tbaa !46
  store i64 31, ptr %4, align 8, !tbaa !50
  br label %deque_popleft_impl.exit

deque_popleft_impl.exit:                          ; preds = %30, %freeblock.exit.i, %55
  %56 = load i32, ptr %37, align 8, !tbaa !20
  %.not.i = icmp sgt i32 %56, -1
  br i1 %.not.i, label %57, label %Py_DECREF.exit

57:                                               ; preds = %deque_popleft_impl.exit
  %58 = add nsw i32 %56, -1
  store i32 %58, ptr %37, align 8, !tbaa !20
  %59 = icmp eq i32 %58, 0
  br i1 %59, label %60, label %Py_DECREF.exit

60:                                               ; preds = %57
  tail call void @_Py_Dealloc(ptr noundef nonnull %37) #9
  br label %Py_DECREF.exit

61:                                               ; preds = %22
  %62 = getelementptr inbounds nuw i8, ptr %0, i64 56
  %63 = load i64, ptr %62, align 8, !tbaa !53
  %64 = add i64 %63, 1
  store i64 %64, ptr %62, align 8, !tbaa !53
  br label %Py_DECREF.exit

Py_DECREF.exit:                                   ; preds = %newblock.exit, %newblock.exit.thread, %60, %57, %deque_popleft_impl.exit, %61
  %.1 = phi i32 [ 0, %61 ], [ 0, %deque_popleft_impl.exit ], [ 0, %57 ], [ 0, %60 ], [ -1, %newblock.exit.thread ], [ -1, %newblock.exit ]
  ret i32 %.1
}